target datalayout = "e-m:e-p270:32:32-p271:32:32-p272:64:64-i64:64-i128:128-f80:128-n8:16:32:64-S128"
target triple = "x86_64-pc-linux-gnu"

%struct.VariableSetStmt = type { i32, i32, ptr, ptr, i8, i8, i32 }

; Function Attrs: nounwind uwtable
define dso_local ptr @ExtractSetVariableArgs(ptr noundef %0) #0 {
  %2 = alloca ptr, align 8
  %3 = alloca ptr, align 8
  store ptr %0, ptr %3, align 8
  %4 = load ptr, ptr %3, align 8
  %5 = getelementptr inbounds nuw %struct.VariableSetStmt, ptr %4, i32 0, i32 1
  %6 = load i32, ptr %5, align 4
  switch i32 %6, label %20 [
    i32 0, label %7
    i32 2, label %15
  ]

7:                                                ; preds = %1
  %8 = load ptr, ptr %3, align 8
  %9 = getelementptr inbounds nuw %struct.VariableSetStmt, ptr %8, i32 0, i32 2
  %10 = load ptr, ptr %9, align 8
  %11 = load ptr, ptr %3, align 8
  %12 = getelementptr inbounds nuw %struct.VariableSetStmt, ptr %11, i32 0, i32 3
  %13 = load ptr, ptr %12, align 8
  %14 = call ptr @flatten_set_variable_args(ptr noundef %10, ptr noundef %13)
  store ptr %14, ptr %2, align 8
  br label %21

15:                                               ; preds = %1
  %16 = load ptr, ptr %3, align 8
  %17 = getelementptr inbounds nuw %struct.VariableSetStmt, ptr %16, i32 0, i32 2
  %18 = load ptr, ptr %17, align 8
  %19 = call ptr @GetConfigOptionByName(ptr noundef %18, ptr noundef null, i1 noundef zeroext false)
  store ptr %19, ptr %2, align 8
  br label %21

20:                                               ; preds = %1
  store ptr null, ptr %2, align 8
  br label %21

21:                                               ; preds = %20, %15, %7
  %22 = load ptr, ptr %2, align 8
  ret ptr %22
}