; Function Attrs: nounwind uwtable
define dso_local ptr @ExtractSetVariableArgs(ptr noundef readonly captures(none) %0) local_unnamed_addr #0 {
  %2 = getelementptr inbounds nuw i8, ptr %0, i64 4
  %3 = load i32, ptr %2, align 4
  switch i32 %3, label %14 [
    i32 0, label %4
    i32 2, label %10
  ]

4:                                                ; preds = %1
  %5 = getelementptr inbounds nuw i8, ptr %0, i64 8
  %6 = load ptr, ptr %5, align 8
  %7 = getelementptr inbounds nuw i8, ptr %0, i64 16
  %8 = load ptr, ptr %7, align 8
  %9 = tail call fastcc ptr @flatten_set_variable_args(ptr noundef %6, ptr noundef %8)
  br label %14

10:                                               ; preds = %1
  %11 = getelementptr inbounds nuw i8, ptr %0, i64 8
  %12 = load ptr, ptr %11, align 8
  %13 = tail call ptr @GetConfigOptionByName(ptr noundef %12, ptr noundef null, i1 noundef zeroext false) #7
  br label %14

14:                                               ; preds = %1, %10, %4
  %.0 = phi ptr [ %13, %10 ], [ %9, %4 ], [ null, %1 ]
  ret ptr %.0
}